target datalayout = "e-m:e-p270:32:32-p271:32:32-p272:64:64-i64:64-i128:128-f80:128-n8:16:32:64-S128"
target triple = "x86_64-unknown-linux-gnu"

%struct.anchored_matcher_info = type { i32, i32, i32, [52 x i8] }
%struct.NFA = type { i32, i32, i8, i8, i8, i8, %union.anon, i32, i32, i32, i32, i32, i32, i32, [20 x i8] }
%union.anon = type { i16 }

; Function Attrs: mustprogress nounwind uwtable
define hidden noundef i32 @_ZN3ue217anchoredStateSizeERK21anchored_matcher_info(ptr noundef nonnull align 64 dereferenceable(64) %atable) #1 {
entry:
  %atable.addr = alloca ptr, align 8
  %curr = alloca ptr, align 8
  %nfa = alloca ptr, align 8
  store ptr %atable, ptr %atable.addr, align 8
  %0 = load ptr, ptr %atable.addr, align 8
  store ptr %0, ptr %curr, align 8
  br label %while.cond

while.cond:                                       ; preds = %while.body, %entry
  %1 = load ptr, ptr %curr, align 8
  %next_offset = getelementptr inbounds %struct.anchored_matcher_info, ptr %1, i32 0, i32 0
  %2 = load i32, ptr %next_offset, align 64
  %tobool = icmp ne i32 %2, 0
  br i1 %tobool, label %while.body, label %while.end

while.body:                                       ; preds = %while.cond
  %3 = load ptr, ptr %curr, align 8
  %4 = load ptr, ptr %curr, align 8
  %next_offset1 = getelementptr inbounds %struct.anchored_matcher_info, ptr %4, i32 0, i32 0
  %5 = load i32, ptr %next_offset1, align 64
  %idx.ext = zext i32 %5 to i64
  %add.ptr = getelementptr inbounds i8, ptr %3, i64 %idx.ext
  store ptr %add.ptr, ptr %curr, align 8
  br label %while.cond, !llvm.loop !5

while.end:                                        ; preds = %while.cond
  %6 = load ptr, ptr %curr, align 8
  %add.ptr2 = getelementptr inbounds i8, ptr %6, i64 64
  store ptr %add.ptr2, ptr %nfa, align 8
  %7 = load ptr, ptr %curr, align 8
  %state_offset = getelementptr inbounds %struct.anchored_matcher_info, ptr %7, i32 0, i32 1
  %8 = load i32, ptr %state_offset, align 4
  %9 = load ptr, ptr %nfa, align 8
  %streamStateSize = getelementptr inbounds %struct.NFA, ptr %9, i32 0, i32 10
  %10 = load i32, ptr %streamStateSize, align 4
  %add = add i32 %8, %10
  ret i32 %add
}