; Function Attrs: mustprogress nofree norecurse nosync nounwind willreturn memory(read, inaccessiblemem: none) uwtable
define hidden noundef i32 @_ZN3ue217anchoredStateSizeERK21anchored_matcher_info(ptr nocapture noundef nonnull readonly align 64 dereferenceable(64) %atable) local_unnamed_addr #2 {
entry:
  %0 = load i32, ptr %atable, align 64
  %tobool.not5 = icmp eq i32 %0, 0
  br i1 %tobool.not5, label %while.end, label %while.body

while.body:                                       ; preds = %entry, %while.body
  %1 = phi i32 [ %2, %while.body ], [ %0, %entry ]
  %curr.06 = phi ptr [ %add.ptr, %while.body ], [ %atable, %entry ]
  %idx.ext = zext i32 %1 to i64
  %add.ptr = getelementptr inbounds i8, ptr %curr.06, i64 %idx.ext
  %2 = load i32, ptr %add.ptr, align 64
  %tobool.not = icmp eq i32 %2, 0
  br i1 %tobool.not, label %while.end, label %while.body, !llvm.loop !5

while.end:                                        ; preds = %while.body, %entry
  %curr.0.lcssa = phi ptr [ %atable, %entry ], [ %add.ptr, %while.body ]
  %state_offset = getelementptr inbounds i8, ptr %curr.0.lcssa, i64 4
  %3 = load i32, ptr %state_offset, align 4
  %streamStateSize = getelementptr inbounds i8, ptr %curr.0.lcssa, i64 92
  %4 = load i32, ptr %streamStateSize, align 4
  %add = add i32 %4, %3
  ret i32 %add
}